; Function Attrs: mustprogress uwtable
define void @_Z12copy_moltypePK13gmx_moltype_tPS_(ptr noundef %0, ptr noundef initializes((0, 8)) %1) local_unnamed_addr #3 {
  %3 = load ptr, ptr %0, align 8, !tbaa !9
  store ptr %3, ptr %1, align 8, !tbaa !9
  %4 = getelementptr inbounds nuw i8, ptr %0, i64 2360
  %5 = getelementptr inbounds nuw i8, ptr %1, i64 2360
  %6 = tail call noundef nonnull align 8 dereferenceable(24) ptr @_ZNSt6vectorIiSaIiEEaSERKS1_(ptr noundef nonnull align 8 dereferenceable(48) %5, ptr noundef nonnull align 8 dereferenceable(48) %4)
  %7 = getelementptr inbounds nuw i8, ptr %1, i64 2384
  %8 = getelementptr inbounds nuw i8, ptr %0, i64 2384
  %9 = tail call noundef nonnull align 8 dereferenceable(24) ptr @_ZNSt6vectorIiSaIiEEaSERKS1_(ptr noundef nonnull align 8 dereferenceable(24) %7, ptr noundef nonnull align 8 dereferenceable(24) %8)
  %10 = getelementptr inbounds nuw i8, ptr %0, i64 8
  %11 = tail call noundef ptr @_Z12copy_t_atomsPK7t_atoms(ptr noundef nonnull %10)
  %12 = getelementptr inbounds nuw i8, ptr %1, i64 8
  tail call void @llvm.memcpy.p0.p0.i64(ptr noundef nonnull align 8 dereferenceable(72) %12, ptr noundef nonnull align 8 dereferenceable(72) %11, i64 72, i1 false), !tbaa.struct !194
  tail call void @_Z9save_freePKcS0_iPv(ptr noundef nonnull @.str.102, ptr noundef nonnull @.str.103, i32 noundef 730, ptr noundef nonnull %11)
  %13 = getelementptr inbounds nuw i8, ptr %0, i64 80
  %14 = getelementptr inbounds nuw i8, ptr %1, i64 80
  br label %16

15:                                               ; preds = %16
  ret void

16:                                               ; preds = %2, %16
  %indvars.iv = phi i64 [ 0, %2 ], [ %indvars.iv.next, %16 ]
  %17 = getelementptr inbounds nuw [95 x %struct.InteractionList], ptr %13, i64 0, i64 %indvars.iv
  %18 = getelementptr inbounds nuw [95 x %struct.InteractionList], ptr %14, i64 0, i64 %indvars.iv
  %19 = tail call noundef nonnull align 8 dereferenceable(24) ptr @_ZNSt6vectorIiSaIiEEaSERKS1_(ptr noundef nonnull align 8 dereferenceable(24) %18, ptr noundef nonnull align 8 dereferenceable(24) %17)
  %indvars.iv.next = add nuw nsw i64 %indvars.iv, 1
  %exitcond.not = icmp eq i64 %indvars.iv.next, 95
  br i1 %exitcond.not, label %15, label %16, !llvm.loop !200
}